target datalayout = "e-m:e-p270:32:32-p271:32:32-p272:64:64-i64:64-i128:128-f80:128-n8:16:32:64-S128"
target triple = "x86_64-pc-linux-gnu"

%struct.zip_record = type { i32, i32, i32, i32, i16, i16, i32, ptr }

; Function Attrs: nounwind uwtable
define internal i32 @sort_by_file_offset(ptr noundef %0, ptr noundef %1) #0 {
  %3 = alloca i32, align 4
  %4 = alloca ptr, align 8
  %5 = alloca ptr, align 8
  %6 = alloca ptr, align 8
  %7 = alloca ptr, align 8
  store ptr %0, ptr %4, align 8
  store ptr %1, ptr %5, align 8
  %8 = load ptr, ptr %4, align 8
  store ptr %8, ptr %6, align 8
  %9 = load ptr, ptr %5, align 8
  store ptr %9, ptr %7, align 8
  %10 = load ptr, ptr %6, align 8
  %11 = getelementptr inbounds %struct.zip_record, ptr %10, i32 0, i32 0
  %12 = load i32, ptr %11, align 8
  %13 = load ptr, ptr %7, align 8
  %14 = getelementptr inbounds %struct.zip_record, ptr %13, i32 0, i32 0
  %15 = load i32, ptr %14, align 8
  %16 = icmp ult i32 %12, %15
  br i1 %16, label %17, label %18

17:                                               ; preds = %2
  store i32 -1, ptr %3, align 4
  br label %29

18:                                               ; preds = %2
  %19 = load ptr, ptr %6, align 8
  %20 = getelementptr inbounds %struct.zip_record, ptr %19, i32 0, i32 0
  %21 = load i32, ptr %20, align 8
  %22 = load ptr, ptr %7, align 8
  %23 = getelementptr inbounds %struct.zip_record, ptr %22, i32 0, i32 0
  %24 = load i32, ptr %23, align 8
  %25 = icmp ugt i32 %21, %24
  br i1 %25, label %26, label %27

26:                                               ; preds = %18
  store i32 1, ptr %3, align 4
  br label %29

27:                                               ; preds = %18
  br label %28

28:                                               ; preds = %27
  store i32 0, ptr %3, align 4
  br label %29

29:                                               ; preds = %28, %26, %17
  %30 = load i32, ptr %3, align 4
  ret i32 %30
}