; Function Attrs: mustprogress nofree norecurse nosync nounwind willreturn memory(argmem: read) uwtable
define internal i32 @sort_by_file_offset(ptr nocapture noundef readonly %0, ptr nocapture noundef readonly %1) #3 {
  %3 = load i32, ptr %0, align 8
  %4 = load i32, ptr %1, align 8
  %5 = icmp ult i32 %3, %4
  %6 = icmp ugt i32 %3, %4
  %. = zext i1 %6 to i32
  %.0 = select i1 %5, i32 -1, i32 %.
  ret i32 %.0
}